target datalayout = "e-m:e-p270:32:32-p271:32:32-p272:64:64-i64:64-i128:128-f80:128-n8:16:32:64-S128"
target triple = "x86_64-pc-linux-gnu"

%struct.ForeignScan = type { %struct.Scan, i32, i32, i32, i32, ptr, ptr, ptr, ptr, ptr, ptr, i8 }
%struct.Scan = type { %struct.Plan, i32 }
%struct.Plan = type { i32, i32, double, double, double, i32, i8, i8, i8, i32, ptr, ptr, ptr, ptr, ptr, ptr, ptr }
%struct.ForeignScanState = type { %struct.ScanState, ptr, i64, ptr, ptr, ptr }
%struct.ScanState = type { %struct.PlanState, ptr, ptr, ptr }
%struct.PlanState = type { i32, ptr, ptr, ptr, ptr, ptr, ptr, ptr, ptr, ptr, ptr, ptr, ptr, ptr, ptr, ptr, ptr, ptr, i8, ptr, ptr, ptr, ptr, ptr, i8, i8, i8, i8, i8, i8, i8, i8 }
%struct.EState = type { i32, i32, ptr, ptr, ptr, i32, ptr, ptr, ptr, ptr, ptr, ptr, ptr, ptr, ptr, ptr, i32, ptr, ptr, ptr, ptr, ptr, ptr, ptr, ptr, ptr, ptr, i64, i64, i32, i32, i8, ptr, ptr, ptr, ptr, ptr, i8, i32, i32, ptr, i32, ptr, ptr, ptr, ptr }

; Function Attrs: nounwind uwtable
define internal ptr @ExecForeignScan(ptr noundef %0) #0 {
  %2 = alloca ptr, align 8
  %3 = alloca ptr, align 8
  %4 = alloca ptr, align 8
  %5 = alloca ptr, align 8
  %6 = alloca ptr, align 8
  %7 = alloca i32, align 4
  store ptr %0, ptr %3, align 8
  call void @llvm.lifetime.start.p0(i64 8, ptr %4) #5
  %8 = load ptr, ptr %3, align 8
  store ptr %8, ptr %4, align 8
  call void @llvm.lifetime.start.p0(i64 8, ptr %5) #5
  %9 = load ptr, ptr %4, align 8
  %10 = getelementptr inbounds nuw %struct.ForeignScanState, ptr %9, i32 0, i32 0
  %11 = getelementptr inbounds nuw %struct.ScanState, ptr %10, i32 0, i32 0
  %12 = getelementptr inbounds nuw %struct.PlanState, ptr %11, i32 0, i32 1
  %13 = load ptr, ptr %12, align 8
  store ptr %13, ptr %5, align 8
  call void @llvm.lifetime.start.p0(i64 8, ptr %6) #5
  %14 = load ptr, ptr %4, align 8
  %15 = getelementptr inbounds nuw %struct.ForeignScanState, ptr %14, i32 0, i32 0
  %16 = getelementptr inbounds nuw %struct.ScanState, ptr %15, i32 0, i32 0
  %17 = getelementptr inbounds nuw %struct.PlanState, ptr %16, i32 0, i32 2
  %18 = load ptr, ptr %17, align 8
  store ptr %18, ptr %6, align 8
  %19 = load ptr, ptr %6, align 8
  %20 = getelementptr inbounds nuw %struct.EState, ptr %19, i32 0, i32 36
  %21 = load ptr, ptr %20, align 8
  %22 = icmp ne ptr %21, null
  br i1 %22, label %23, label %29

23:                                               ; preds = %1
  %24 = load ptr, ptr %5, align 8
  %25 = getelementptr inbounds nuw %struct.ForeignScan, ptr %24, i32 0, i32 1
  %26 = load i32, ptr %25, align 8
  %27 = icmp ne i32 %26, 1
  br i1 %27, label %28, label %29

28:                                               ; preds = %23
  store ptr null, ptr %2, align 8
  store i32 1, ptr %7, align 4
  br label %33

29:                                               ; preds = %23, %1
  %30 = load ptr, ptr %4, align 8
  %31 = getelementptr inbounds nuw %struct.ForeignScanState, ptr %30, i32 0, i32 0
  %32 = call ptr @ExecScan(ptr noundef %31, ptr noundef @ForeignNext, ptr noundef @ForeignRecheck)
  store ptr %32, ptr %2, align 8
  store i32 1, ptr %7, align 4
  br label %33

33:                                               ; preds = %29, %28
  call void @llvm.lifetime.end.p0(i64 8, ptr %6) #5
  call void @llvm.lifetime.end.p0(i64 8, ptr %5) #5
  call void @llvm.lifetime.end.p0(i64 8, ptr %4) #5
  %34 = load ptr, ptr %2, align 8
  ret ptr %34
}