; Function Attrs: nounwind uwtable
define internal ptr @ExecForeignScan(ptr noundef %0) #0 {
  %2 = getelementptr inbounds nuw i8, ptr %0, i64 16
  %3 = load ptr, ptr %2, align 8
  %4 = getelementptr inbounds nuw i8, ptr %3, i64 272
  %5 = load ptr, ptr %4, align 8
  %.not = icmp eq ptr %5, null
  br i1 %.not, label %11, label %6

6:                                                ; preds = %1
  %7 = getelementptr inbounds nuw i8, ptr %0, i64 8
  %8 = load ptr, ptr %7, align 8
  %9 = getelementptr inbounds nuw i8, ptr %8, i64 112
  %10 = load i32, ptr %9, align 8
  %.not7 = icmp eq i32 %10, 1
  br i1 %.not7, label %11, label %13

11:                                               ; preds = %6, %1
  %12 = tail call ptr @ExecScan(ptr noundef nonnull %0, ptr noundef nonnull @ForeignNext, ptr noundef nonnull @ForeignRecheck) #5
  br label %13

13:                                               ; preds = %6, %11
  %.0 = phi ptr [ %12, %11 ], [ null, %6 ]
  ret ptr %.0
}